; Function Attrs: nounwind uwtable
define hidden i32 @psa_unregister_read_under_mutex(ptr noundef %0) local_unnamed_addr #4 {
  %2 = icmp eq ptr %0, null
  br i1 %2, label %psa_unregister_read.exit, label %3

3:                                                ; preds = %1
  %4 = getelementptr inbounds nuw i8, ptr %0, i64 24
  %5 = load i32, ptr %4, align 8, !tbaa !9
  %6 = and i32 %5, -2
  %switch.i = icmp eq i32 %6, 2
  br i1 %switch.i, label %7, label %psa_unregister_read.exit

7:                                                ; preds = %3
  %8 = icmp eq i32 %5, 3
  %9 = getelementptr i8, ptr %0, i64 32
  %10 = load i64, ptr %9, align 8, !tbaa !18
  %11 = icmp eq i64 %10, 1
  %or.cond.i = select i1 %8, i1 %11, i1 false
  br i1 %or.cond.i, label %12, label %._crit_edge.i

12:                                               ; preds = %7
  %13 = tail call i32 @psa_wipe_key_slot(ptr noundef nonnull %0) #12
  br label %psa_unregister_read.exit

._crit_edge.i:                                    ; preds = %7
  %.not.i = icmp eq i64 %10, 0
  br i1 %.not.i, label %psa_unregister_read.exit, label %14

14:                                               ; preds = %._crit_edge.i
  %15 = add i64 %10, -1
  store i64 %15, ptr %9, align 8, !tbaa !18
  br label %psa_unregister_read.exit

psa_unregister_read.exit:                         ; preds = %1, %3, %12, %._crit_edge.i, %14
  %.0.i = phi i32 [ %13, %12 ], [ 0, %14 ], [ 0, %1 ], [ -151, %3 ], [ -151, %._crit_edge.i ]
  ret i32 %.0.i
}